target datalayout = "e-m:e-p270:32:32-p271:32:32-p272:64:64-i64:64-i128:128-f80:128-n8:16:32:64-S128"
target triple = "x86_64-unknown-linux-gnu"

; Function Attrs: mustprogress nounwind uwtable
define internal noundef signext i8 @_ZL9U_FAILURE10UErrorCode(i32 noundef %code) #0 {
entry:
  %code.addr = alloca i32, align 4
  store i32 %code, ptr %code.addr, align 4
  %0 = load i32, ptr %code.addr, align 4
  %cmp = icmp sgt i32 %0, 0
  %conv = zext i1 %cmp to i8
  ret i8 %conv
}

; Function Attrs: mustprogress uwtable
define i32 @ucal_getLimit_75(ptr noundef %cal, i32 noundef %field, i32 noundef %type, ptr noundef %status) #1 {
entry:
  %retval = alloca i32, align 4
  %cal.addr = alloca ptr, align 8
  %field.addr = alloca i32, align 4
  %type.addr = alloca i32, align 4
  %status.addr = alloca ptr, align 8
  store ptr %cal, ptr %cal.addr, align 8
  store i32 %field, ptr %field.addr, align 4
  store i32 %type, ptr %type.addr, align 4
  store ptr %status, ptr %status.addr, align 8
  %0 = load ptr, ptr %status.addr, align 8
  %cmp = icmp eq ptr %0, null
  br i1 %cmp, label %if.then, label %lor.lhs.false

lor.lhs.false:                                    ; preds = %entry
  %1 = load ptr, ptr %status.addr, align 8
  %2 = load i32, ptr %1, align 4
  %call = call noundef signext i8 @_ZL9U_FAILURE10UErrorCode(i32 noundef %2)
  %tobool = icmp ne i8 %call, 0
  br i1 %tobool, label %if.then, label %if.end

if.then:                                          ; preds = %lor.lhs.false, %entry
  store i32 -1, ptr %retval, align 4
  br label %return

if.end:                                           ; preds = %lor.lhs.false
  %3 = load i32, ptr %field.addr, align 4
  %cmp1 = icmp slt i32 %3, 0
  br i1 %cmp1, label %if.then4, label %lor.lhs.false2

lor.lhs.false2:                                   ; preds = %if.end
  %4 = load i32, ptr %field.addr, align 4
  %cmp3 = icmp sle i32 24, %4
  br i1 %cmp3, label %if.then4, label %if.end5

if.then4:                                         ; preds = %lor.lhs.false2, %if.end
  %5 = load ptr, ptr %status.addr, align 8
  store i32 1, ptr %5, align 4
  store i32 -1, ptr %retval, align 4
  br label %return

if.end5:                                          ; preds = %lor.lhs.false2
  %6 = load i32, ptr %type.addr, align 4
  switch i32 %6, label %sw.default [
    i32 0, label %sw.bb
    i32 1, label %sw.bb7
    i32 2, label %sw.bb11
    i32 3, label %sw.bb15
    i32 4, label %sw.bb19
    i32 5, label %sw.bb23
  ]

sw.bb:                                            ; preds = %if.end5
  %7 = load ptr, ptr %cal.addr, align 8
  %8 = load i32, ptr %field.addr, align 4
  %vtable = load ptr, ptr %7, align 8
  %vfn = getelementptr inbounds ptr, ptr %vtable, i64 14
  %9 = load ptr, ptr %vfn, align 8
  %call6 = call noundef i32 %9(ptr noundef nonnull align 8 dereferenceable(618) %7, i32 noundef %8)
  store i32 %call6, ptr %retval, align 4
  br label %return

sw.bb7:                                           ; preds = %if.end5
  %10 = load ptr, ptr %cal.addr, align 8
  %11 = load i32, ptr %field.addr, align 4
  %vtable8 = load ptr, ptr %10, align 8
  %vfn9 = getelementptr inbounds ptr, ptr %vtable8, i64 16
  %12 = load ptr, ptr %vfn9, align 8
  %call10 = call noundef i32 %12(ptr noundef nonnull align 8 dereferenceable(618) %10, i32 noundef %11)
  store i32 %call10, ptr %retval, align 4
  br label %return

sw.bb11:                                          ; preds = %if.end5
  %13 = load ptr, ptr %cal.addr, align 8
  %14 = load i32, ptr %field.addr, align 4
  %vtable12 = load ptr, ptr %13, align 8
  %vfn13 = getelementptr inbounds ptr, ptr %vtable12, i64 18
  %15 = load ptr, ptr %vfn13, align 8
  %call14 = call noundef i32 %15(ptr noundef nonnull align 8 dereferenceable(618) %13, i32 noundef %14)
  store i32 %call14, ptr %retval, align 4
  br label %return

sw.bb15:                                          ; preds = %if.end5
  %16 = load ptr, ptr %cal.addr, align 8
  %17 = load i32, ptr %field.addr, align 4
  %vtable16 = load ptr, ptr %16, align 8
  %vfn17 = getelementptr inbounds ptr, ptr %vtable16, i64 20
  %18 = load ptr, ptr %vfn17, align 8
  %call18 = call noundef i32 %18(ptr noundef nonnull align 8 dereferenceable(618) %16, i32 noundef %17)
  store i32 %call18, ptr %retval, align 4
  br label %return

sw.bb19:                                          ; preds = %if.end5
  %19 = load ptr, ptr %cal.addr, align 8
  %20 = load i32, ptr %field.addr, align 4
  %21 = load ptr, ptr %status.addr, align 8
  %vtable20 = load ptr, ptr %19, align 8
  %vfn21 = getelementptr inbounds ptr, ptr %vtable20, i64 21
  %22 = load ptr, ptr %vfn21, align 8
  %call22 = call noundef i32 %22(ptr noundef nonnull align 8 dereferenceable(618) %19, i32 noundef %20, ptr noundef nonnull align 4 dereferenceable(4) %21)
  store i32 %call22, ptr %retval, align 4
  br label %return

sw.bb23:                                          ; preds = %if.end5
  %23 = load ptr, ptr %cal.addr, align 8
  %24 = load i32, ptr %field.addr, align 4
  %25 = load ptr, ptr %status.addr, align 8
  %vtable24 = load ptr, ptr %23, align 8
  %vfn25 = getelementptr inbounds ptr, ptr %vtable24, i64 22
  %26 = load ptr, ptr %vfn25, align 8
  %call26 = call noundef i32 %26(ptr noundef nonnull align 8 dereferenceable(618) %23, i32 noundef %24, ptr noundef nonnull align 4 dereferenceable(4) %25)
  store i32 %call26, ptr %retval, align 4
  br label %return

sw.default:                                       ; preds = %if.end5
  br label %sw.epilog

sw.epilog:                                        ; preds = %sw.default
  store i32 -1, ptr %retval, align 4
  br label %return

return:                                           ; preds = %sw.epilog, %sw.bb23, %sw.bb19, %sw.bb15, %sw.bb11, %sw.bb7, %sw.bb, %if.then4, %if.then
  %27 = load i32, ptr %retval, align 4
  ret i32 %27
}