; Function Attrs: mustprogress uwtable
define noundef i32 @ucal_getLimit_75(ptr noundef %cal, i32 noundef %field, i32 noundef %type, ptr noundef %status) local_unnamed_addr #1 {
entry:
  %cmp = icmp eq ptr %status, null
  br i1 %cmp, label %return, label %lor.lhs.false

lor.lhs.false:                                    ; preds = %entry
  %0 = load i32, ptr %status, align 4
  %cmp.i = icmp slt i32 %0, 1
  br i1 %cmp.i, label %if.end, label %return

if.end:                                           ; preds = %lor.lhs.false
  %or.cond = icmp ugt i32 %field, 23
  br i1 %or.cond, label %if.then4, label %if.end5

if.then4:                                         ; preds = %if.end
  store i32 1, ptr %status, align 4
  br label %return

if.end5:                                          ; preds = %if.end
  switch i32 %type, label %return [
    i32 0, label %sw.bb
    i32 1, label %sw.bb7
    i32 2, label %sw.bb11
    i32 3, label %sw.bb15
    i32 4, label %sw.bb19
    i32 5, label %sw.bb23
  ]

sw.bb:                                            ; preds = %if.end5
  %vtable = load ptr, ptr %cal, align 8
  %vfn = getelementptr inbounds i8, ptr %vtable, i64 112
  %1 = load ptr, ptr %vfn, align 8
  %call6 = tail call noundef i32 %1(ptr noundef nonnull align 8 dereferenceable(618) %cal, i32 noundef %field)
  br label %return

sw.bb7:                                           ; preds = %if.end5
  %vtable8 = load ptr, ptr %cal, align 8
  %vfn9 = getelementptr inbounds i8, ptr %vtable8, i64 128
  %2 = load ptr, ptr %vfn9, align 8
  %call10 = tail call noundef i32 %2(ptr noundef nonnull align 8 dereferenceable(618) %cal, i32 noundef %field)
  br label %return

sw.bb11:                                          ; preds = %if.end5
  %vtable12 = load ptr, ptr %cal, align 8
  %vfn13 = getelementptr inbounds i8, ptr %vtable12, i64 144
  %3 = load ptr, ptr %vfn13, align 8
  %call14 = tail call noundef i32 %3(ptr noundef nonnull align 8 dereferenceable(618) %cal, i32 noundef %field)
  br label %return

sw.bb15:                                          ; preds = %if.end5
  %vtable16 = load ptr, ptr %cal, align 8
  %vfn17 = getelementptr inbounds i8, ptr %vtable16, i64 160
  %4 = load ptr, ptr %vfn17, align 8
  %call18 = tail call noundef i32 %4(ptr noundef nonnull align 8 dereferenceable(618) %cal, i32 noundef %field)
  br label %return

sw.bb19:                                          ; preds = %if.end5
  %vtable20 = load ptr, ptr %cal, align 8
  %vfn21 = getelementptr inbounds i8, ptr %vtable20, i64 168
  %5 = load ptr, ptr %vfn21, align 8
  %call22 = tail call noundef i32 %5(ptr noundef nonnull align 8 dereferenceable(618) %cal, i32 noundef %field, ptr noundef nonnull align 4 dereferenceable(4) %status)
  br label %return

sw.bb23:                                          ; preds = %if.end5
  %vtable24 = load ptr, ptr %cal, align 8
  %vfn25 = getelementptr inbounds i8, ptr %vtable24, i64 176
  %6 = load ptr, ptr %vfn25, align 8
  %call26 = tail call noundef i32 %6(ptr noundef nonnull align 8 dereferenceable(618) %cal, i32 noundef %field, ptr noundef nonnull align 4 dereferenceable(4) %status)
  br label %return

return:                                           ; preds = %if.end5, %entry, %lor.lhs.false, %sw.bb23, %sw.bb19, %sw.bb15, %sw.bb11, %sw.bb7, %sw.bb, %if.then4
  %retval.0 = phi i32 [ -1, %if.then4 ], [ %call26, %sw.bb23 ], [ %call22, %sw.bb19 ], [ %call18, %sw.bb15 ], [ %call14, %sw.bb11 ], [ %call10, %sw.bb7 ], [ %call6, %sw.bb ], [ -1, %lor.lhs.false ], [ -1, %entry ], [ -1, %if.end5 ]
  ret i32 %retval.0
}